(dp0
S'Data Retention'
p1
I3
sS'First Party Collection/Use'
p2
I0
sS'Third Party Sharing/Collection'
p3
I1
sS'Policy Change'
p4
I7
sS'User Choice/Control'
p5
I8
sS'Do Not Track'
p6
I6
sS'Data Security'
p7
I4
sS'International and Specific Audiences'
p8
I5
sS'User Access, Edit and Deletion'
p9
I2
s.