ccollections
OrderedDict
p0
((lp1
(lp2
S'First Party Collection/Use'
p3
aI0
aa(lp4
S'Third Party Sharing/Collection'
p5
aI1
aa(lp6
S'User Access, Edit and Deletion'
p7
aI2
aa(lp8
S'Data Retention'
p9
aI3
aa(lp10
S'Data Security'
p11
aI4
aa(lp12
S'International and Specific Audiences'
p13
aI5
aa(lp14
S'Do Not Track'
p15
aI6
aa(lp16
S'Policy Change'
p17
aI7
aa(lp18
S'User Choice/Control'
p19
aI8
aa(lp20
S'Introductory/Generic'
p21
aI9
aa(lp22
S'Practice not covered'
p23
aI10
aa(lp24
S'Privacy contact information'
p25
aI11
aatp26
Rp27
.